; Function Attrs: cold mustprogress nofree norecurse nosync nounwind memory(argmem: readwrite) uwtable
define dso_local void @_Z35Vmycpu_top___024root___eval_initialP20Vmycpu_top___024root(ptr nocapture noundef %0) local_unnamed_addr #2 {
  tail call void @_Z40Vmycpu_top___024root___eval_initial__TOPP20Vmycpu_top___024root(ptr noundef %0) #13
  %2 = getelementptr inbounds i8, ptr %0, i64 162
  %3 = load i8, ptr %2, align 2
  %4 = getelementptr inbounds i8, ptr %0, i64 217
  store i8 %3, ptr %4, align 1
  %5 = getelementptr inbounds i8, ptr %0, i64 221
  store i8 %3, ptr %5, align 1
  %6 = getelementptr inbounds i8, ptr %0, i64 8
  %7 = load i8, ptr %6, align 8
  %8 = getelementptr inbounds i8, ptr %0, i64 222
  store i8 %7, ptr %8, align 2
  ret void
}